; Function Attrs: mustprogress nounwind uwtable
define hidden void @_ZN14ArchiveBuilder13SourceObjList8relocateEiPS_(ptr nocapture noundef nonnull readonly align 8 dereferenceable(40) %0, i32 noundef %1, ptr noundef %2) local_unnamed_addr #1 align 2 {
  %4 = alloca %class.RelocateEmbeddedPointers, align 8
  %5 = getelementptr inbounds i8, ptr %0, i64 8
  %6 = load ptr, ptr %5, align 8
  %7 = getelementptr inbounds i8, ptr %6, i64 8
  %8 = load ptr, ptr %7, align 8
  %9 = sext i32 %1 to i64
  %10 = getelementptr inbounds ptr, ptr %8, i64 %9
  %11 = load ptr, ptr %10, align 8
  %12 = load i64, ptr %11, align 8
  %13 = getelementptr inbounds i8, ptr %11, i64 8
  %14 = load i64, ptr %13, align 8
  %15 = getelementptr inbounds i8, ptr %11, i64 48
  %16 = load ptr, ptr %15, align 8
  store ptr getelementptr inbounds inrange(-16, 8) (i8, ptr @_ZTV24RelocateEmbeddedPointers, i64 16), ptr %4, align 8
  %17 = getelementptr inbounds i8, ptr %4, i64 8
  store ptr %2, ptr %17, align 8
  %18 = getelementptr inbounds i8, ptr %4, i64 16
  store ptr %16, ptr %18, align 8
  %19 = getelementptr inbounds i8, ptr %4, i64 24
  store i64 %12, ptr %19, align 8
  %20 = getelementptr inbounds i8, ptr %0, i64 16
  %21 = icmp ult i64 %12, %14
  br i1 %21, label %.lr.ph.i.i, label %_ZNK6BitMap7iterateI24RelocateEmbeddedPointersEEbPT_mm.exit

.lr.ph.i.i:                                       ; preds = %3
  %22 = add i64 %14, 63
  %23 = lshr i64 %22, 6
  br label %24

24:                                               ; preds = %45, %.lr.ph.i.i
  %.0917.i.i = phi i64 [ %12, %.lr.ph.i.i ], [ %49, %45 ]
  %25 = lshr i64 %.0917.i.i, 6
  %26 = load ptr, ptr %20, align 8
  %27 = getelementptr inbounds i64, ptr %26, i64 %25
  %28 = load i64, ptr %27, align 8
  %29 = and i64 %.0917.i.i, 63
  %30 = lshr i64 %28, %29
  %31 = and i64 %30, 1
  %.not.i.i.i.i = icmp eq i64 %31, 0
  br i1 %.not.i.i.i.i, label %32, label %_ZNK6BitMap18find_first_set_bitEmm.exit.i.i

32:                                               ; preds = %24
  %33 = icmp eq i64 %30, 0
  br i1 %33, label %.preheader.i.i, label %41

.preheader.i.i:                                   ; preds = %32, %36
  %.025.i.i.i.i = phi i64 [ %34, %36 ], [ %25, %32 ]
  %34 = add nuw nsw i64 %.025.i.i.i.i, 1
  %35 = icmp ult i64 %34, %23
  br i1 %35, label %36, label %_ZNK6BitMap7iterateI24RelocateEmbeddedPointersEEbPT_mm.exit

36:                                               ; preds = %.preheader.i.i
  %37 = getelementptr inbounds i64, ptr %26, i64 %34
  %38 = load i64, ptr %37, align 8
  %.not36.i.i.i.i = icmp eq i64 %38, 0
  br i1 %.not36.i.i.i.i, label %.preheader.i.i, label %39, !llvm.loop !6

39:                                               ; preds = %36
  %40 = shl i64 %34, 6
  br label %41

41:                                               ; preds = %39, %32
  %.1.ph.i.i.i.i = phi i64 [ %30, %32 ], [ %38, %39 ]
  %.026.ph.i.i.i.i = phi i64 [ %.0917.i.i, %32 ], [ %40, %39 ]
  %42 = call range(i64 0, 65) i64 @llvm.cttz.i64(i64 %.1.ph.i.i.i.i, i1 true)
  %43 = add i64 %.026.ph.i.i.i.i, %42
  %44 = icmp ult i64 %43, %14
  br i1 %44, label %_ZNK6BitMap18find_first_set_bitEmm.exit.i.i, label %_ZNK6BitMap7iterateI24RelocateEmbeddedPointersEEbPT_mm.exit

_ZNK6BitMap18find_first_set_bitEmm.exit.i.i:      ; preds = %41, %24
  %.0.i.i.i.i = phi i64 [ %.0917.i.i, %24 ], [ %43, %41 ]
  %.not.not.i.i = icmp ult i64 %.0.i.i.i.i, %14
  br i1 %.not.not.i.i, label %45, label %_ZNK6BitMap7iterateI24RelocateEmbeddedPointersEEbPT_mm.exit

45:                                               ; preds = %_ZNK6BitMap18find_first_set_bitEmm.exit.i.i
  %46 = load ptr, ptr %4, align 8
  %47 = load ptr, ptr %46, align 8
  %48 = call noundef zeroext i1 %47(ptr noundef nonnull align 8 dereferenceable(32) %4, i64 noundef %.0.i.i.i.i) #19
  %49 = add nuw i64 %.0.i.i.i.i, 1
  %50 = icmp ult i64 %49, %14
  %or.cond = select i1 %48, i1 %50, i1 false
  br i1 %or.cond, label %24, label %_ZNK6BitMap7iterateI24RelocateEmbeddedPointersEEbPT_mm.exit, !llvm.loop !8

_ZNK6BitMap7iterateI24RelocateEmbeddedPointersEEbPT_mm.exit: ; preds = %41, %_ZNK6BitMap18find_first_set_bitEmm.exit.i.i, %45, %.preheader.i.i, %3
  ret void
}